target datalayout = "e-m:e-p270:32:32-p271:32:32-p272:64:64-i64:64-i128:128-f80:128-n8:16:32:64-S128"
target triple = "x86_64-pc-linux-gnu"

%struct.rb_data_type_struct = type { ptr, %struct.anon, ptr, ptr, i64 }
%struct.anon = type { ptr, ptr, ptr, ptr, [1 x ptr] }
%struct.RTypedData = type { %struct.RBasic, ptr, i64, ptr }
%struct.RBasic = type { i64, i64 }

@cEC_GROUP = internal global i64 0, align 8
@cEC_POINT = internal global i64 0, align 8
@eEC_GROUP = internal global i64 0, align 8
@eEC_POINT = internal global i64 0, align 8
@id_i_group = internal global i64 0, align 8
@ossl_ec_group_type = internal constant %struct.rb_data_type_struct { ptr @.str.61, %struct.anon { ptr null, ptr @ossl_ec_group_free, ptr null, ptr null, [1 x ptr] zeroinitializer }, ptr null, ptr null, i64 33 }, align 8
@.str.68 = private unnamed_addr constant [13 x i8] c"EC_GROUP_dup\00", align 1
@.str.70 = private unnamed_addr constant [13 x i8] c"EC_POINT_dup\00", align 1
@ossl_ec_point_type = internal constant %struct.rb_data_type_struct { ptr @.str.87, %struct.anon { ptr null, ptr @ossl_ec_point_free, ptr null, ptr null, [1 x ptr] zeroinitializer }, ptr null, ptr null, i64 33 }, align 8

; Function Attrs: nounwind sspstrong uwtable
define internal i64 @ossl_ec_group_alloc(i64 noundef %0) #0 {
  %2 = alloca i64, align 8
  store i64 %0, ptr %2, align 8, !tbaa !6
  %3 = load i64, ptr %2, align 8, !tbaa !6
  %4 = call i64 @rb_data_typed_object_wrap(i64 noundef %3, ptr noundef null, ptr noundef @ossl_ec_group_type)
  ret i64 %4
}

; Function Attrs: nounwind sspstrong uwtable
define internal i64 @ec_group_new(ptr noundef %0) #0 {
  %2 = alloca ptr, align 8
  %3 = alloca i64, align 8
  %4 = alloca ptr, align 8
  store ptr %0, ptr %2, align 8, !tbaa !33
  call void @llvm.lifetime.start.p0(i64 8, ptr %3) #19
  call void @llvm.lifetime.start.p0(i64 8, ptr %4) #19
  %5 = load i64, ptr @cEC_GROUP, align 8, !tbaa !6
  %6 = call i64 @ossl_ec_group_alloc(i64 noundef %5)
  store i64 %6, ptr %3, align 8, !tbaa !6
  %7 = load ptr, ptr %2, align 8, !tbaa !33
  %8 = call ptr @EC_GROUP_dup(ptr noundef %7)
  store ptr %8, ptr %4, align 8, !tbaa !33
  %9 = load ptr, ptr %4, align 8, !tbaa !33
  %10 = icmp ne ptr %9, null
  br i1 %10, label %13, label %11

11:                                               ; preds = %1
  %12 = load i64, ptr @eEC_GROUP, align 8, !tbaa !6
  call void (i64, ptr, ...) @ossl_raise(i64 noundef %12, ptr noundef @.str.68) #20
  unreachable

13:                                               ; preds = %1
  %14 = load ptr, ptr %4, align 8, !tbaa !33
  %15 = load i64, ptr %3, align 8, !tbaa !6
  %16 = inttoptr i64 %15 to ptr
  %17 = getelementptr inbounds nuw %struct.RTypedData, ptr %16, i32 0, i32 3
  store ptr %14, ptr %17, align 8, !tbaa !25
  %18 = load i64, ptr %3, align 8, !tbaa !6
  call void @llvm.lifetime.end.p0(i64 8, ptr %4) #19
  call void @llvm.lifetime.end.p0(i64 8, ptr %3) #19
  ret i64 %18
}

; Function Attrs: nounwind sspstrong uwtable
define internal i64 @ossl_ec_point_alloc(i64 noundef %0) #0 {
  %2 = alloca i64, align 8
  store i64 %0, ptr %2, align 8, !tbaa !6
  %3 = load i64, ptr %2, align 8, !tbaa !6
  %4 = call i64 @rb_data_typed_object_wrap(i64 noundef %3, ptr noundef null, ptr noundef @ossl_ec_point_type)
  ret i64 %4
}

; Function Attrs: nounwind sspstrong uwtable
define internal i64 @ec_point_new(ptr noundef %0, ptr noundef %1) #0 {
  %3 = alloca ptr, align 8
  %4 = alloca ptr, align 8
  %5 = alloca ptr, align 8
  %6 = alloca i64, align 8
  store ptr %0, ptr %3, align 8, !tbaa !37
  store ptr %1, ptr %4, align 8, !tbaa !33
  call void @llvm.lifetime.start.p0(i64 8, ptr %5) #19
  call void @llvm.lifetime.start.p0(i64 8, ptr %6) #19
  %7 = load i64, ptr @cEC_POINT, align 8, !tbaa !6
  %8 = call i64 @ossl_ec_point_alloc(i64 noundef %7)
  store i64 %8, ptr %6, align 8, !tbaa !6
  %9 = load ptr, ptr %3, align 8, !tbaa !37
  %10 = load ptr, ptr %4, align 8, !tbaa !33
  %11 = call ptr @EC_POINT_dup(ptr noundef %9, ptr noundef %10)
  store ptr %11, ptr %5, align 8, !tbaa !37
  %12 = load ptr, ptr %5, align 8, !tbaa !37
  %13 = icmp ne ptr %12, null
  br i1 %13, label %16, label %14

14:                                               ; preds = %2
  %15 = load i64, ptr @eEC_POINT, align 8, !tbaa !6
  call void (i64, ptr, ...) @ossl_raise(i64 noundef %15, ptr noundef @.str.70) #20
  unreachable

16:                                               ; preds = %2
  %17 = load ptr, ptr %5, align 8, !tbaa !37
  %18 = load i64, ptr %6, align 8, !tbaa !6
  %19 = inttoptr i64 %18 to ptr
  %20 = getelementptr inbounds nuw %struct.RTypedData, ptr %19, i32 0, i32 3
  store ptr %17, ptr %20, align 8, !tbaa !25
  %21 = load i64, ptr %6, align 8, !tbaa !6
  %22 = load i64, ptr @id_i_group, align 8, !tbaa !6
  %23 = load ptr, ptr %4, align 8, !tbaa !33
  %24 = call i64 @ec_group_new(ptr noundef %23)
  %25 = call i64 @rb_ivar_set(i64 noundef %21, i64 noundef %22, i64 noundef %24)
  %26 = load i64, ptr %6, align 8, !tbaa !6
  call void @llvm.lifetime.end.p0(i64 8, ptr %6) #19
  call void @llvm.lifetime.end.p0(i64 8, ptr %5) #19
  ret i64 %26
}