; Function Attrs: nounwind sspstrong uwtable
define internal fastcc i64 @ec_point_new(ptr noundef nonnull %0, ptr noundef %1) unnamed_addr #0 {
  %3 = load i64, ptr @cEC_POINT, align 8, !tbaa !6
  %4 = tail call i64 @rb_data_typed_object_wrap(i64 noundef %3, ptr noundef null, ptr noundef nonnull @ossl_ec_point_type) #7
  %5 = tail call ptr @EC_POINT_dup(ptr noundef nonnull %0, ptr noundef %1) #7
  %.not = icmp eq ptr %5, null
  br i1 %.not, label %6, label %8

6:                                                ; preds = %2
  %7 = load i64, ptr @eEC_POINT, align 8, !tbaa !6
  tail call void (i64, ptr, ...) @ossl_raise(i64 noundef %7, ptr noundef nonnull @.str.70) #9
  unreachable

8:                                                ; preds = %2
  %9 = inttoptr i64 %4 to ptr
  %10 = getelementptr inbounds nuw i8, ptr %9, i64 32
  store ptr %5, ptr %10, align 8, !tbaa !19
  %11 = load i64, ptr @id_i_group, align 8, !tbaa !6
  %12 = load i64, ptr @cEC_GROUP, align 8, !tbaa !6
  %13 = tail call i64 @rb_data_typed_object_wrap(i64 noundef %12, ptr noundef null, ptr noundef nonnull @ossl_ec_group_type) #7
  %14 = tail call ptr @EC_GROUP_dup(ptr noundef %1) #7
  %.not.i = icmp eq ptr %14, null
  br i1 %.not.i, label %15, label %ec_group_new.exit

15:                                               ; preds = %8
  %16 = load i64, ptr @eEC_GROUP, align 8, !tbaa !6
  tail call void (i64, ptr, ...) @ossl_raise(i64 noundef %16, ptr noundef nonnull @.str.68) #9
  unreachable

ec_group_new.exit:                                ; preds = %8
  %17 = inttoptr i64 %13 to ptr
  %18 = getelementptr inbounds nuw i8, ptr %17, i64 32
  store ptr %14, ptr %18, align 8, !tbaa !19
  %19 = tail call i64 @rb_ivar_set(i64 noundef %4, i64 noundef %11, i64 noundef %13) #7
  ret i64 %4
}